target datalayout = "e-m:e-p270:32:32-p271:32:32-p272:64:64-i64:64-i128:128-f80:128-n8:16:32:64-S128"
target triple = "x86_64-pc-linux-gnu"

%struct.TupleDescData = type { i32, i32, i32, i32, ptr, [0 x %struct.CompactAttribute] }
%struct.CompactAttribute = type { i32, i16, i8, i8, i8, i8, i8, i8, i8 }

; Function Attrs: nounwind uwtable
define dso_local ptr @lookup_rowtype_tupdesc_noerror(i32 noundef %0, i32 noundef %1, i1 noundef zeroext %2) #0 {
  %4 = alloca i32, align 4
  %5 = alloca i32, align 4
  %6 = alloca i8, align 1
  %7 = alloca ptr, align 8
  store i32 %0, ptr %4, align 4
  store i32 %1, ptr %5, align 4
  %8 = zext i1 %2 to i8
  store i8 %8, ptr %6, align 1
  call void @llvm.lifetime.start.p0(i64 8, ptr %7) #11
  %9 = load i32, ptr %4, align 4
  %10 = load i32, ptr %5, align 4
  %11 = load i8, ptr %6, align 1, !range !4, !noundef !5
  %12 = trunc i8 %11 to i1
  %13 = call ptr @lookup_rowtype_tupdesc_internal(i32 noundef %9, i32 noundef %10, i1 noundef zeroext %12)
  store ptr %13, ptr %7, align 8
  %14 = load ptr, ptr %7, align 8
  %15 = icmp ne ptr %14, null
  br i1 %15, label %16, label %27

16:                                               ; preds = %3
  br label %17

17:                                               ; preds = %16
  %18 = load ptr, ptr %7, align 8
  %19 = getelementptr inbounds nuw %struct.TupleDescData, ptr %18, i32 0, i32 3
  %20 = load i32, ptr %19, align 4
  %21 = icmp sge i32 %20, 0
  br i1 %21, label %22, label %24

22:                                               ; preds = %17
  %23 = load ptr, ptr %7, align 8
  call void @IncrTupleDescRefCount(ptr noundef %23)
  br label %24

24:                                               ; preds = %22, %17
  br label %25

25:                                               ; preds = %24
  br label %26

26:                                               ; preds = %25
  br label %27

27:                                               ; preds = %26, %3
  %28 = load ptr, ptr %7, align 8
  call void @llvm.lifetime.end.p0(i64 8, ptr %7) #11
  ret ptr %28
}