; Function Attrs: nounwind uwtable
define dso_local ptr @lookup_rowtype_tupdesc_noerror(i32 noundef %0, i32 noundef %1, i1 noundef zeroext %2) local_unnamed_addr #0 {
  %4 = tail call fastcc ptr @lookup_rowtype_tupdesc_internal(i32 noundef %0, i32 noundef %1, i1 noundef zeroext %2)
  %.not = icmp eq ptr %4, null
  br i1 %.not, label %10, label %5

5:                                                ; preds = %3
  %6 = getelementptr inbounds nuw i8, ptr %4, i64 12
  %7 = load i32, ptr %6, align 4
  %8 = icmp sgt i32 %7, -1
  br i1 %8, label %9, label %10

9:                                                ; preds = %5
  tail call void @IncrTupleDescRefCount(ptr noundef nonnull %4) #16
  br label %10

10:                                               ; preds = %5, %9, %3
  ret ptr %4
}